target datalayout = "e-m:e-p270:32:32-p271:32:32-p272:64:64-i64:64-i128:128-f80:128-n8:16:32:64-S128"
target triple = "x86_64-pc-linux-gnu"

%struct.dict = type { ptr, [2 x ptr], [2 x i64], i64, i16, [2 x i8], i16, [0 x ptr] }
%struct.dictEntry = type { ptr, %union.anon, ptr }
%union.anon = type { ptr }
%struct.dictEntryNoValue = type { ptr, ptr }

; Function Attrs: inlinehint nounwind uwtable
define internal ptr @decodeMaskedPtr(ptr noundef %0) #11 {
  %2 = alloca ptr, align 8
  store ptr %0, ptr %2, align 8, !tbaa !36
  %3 = load ptr, ptr %2, align 8, !tbaa !36
  %4 = ptrtoint ptr %3 to i64
  %5 = and i64 %4, -8
  %6 = inttoptr i64 %5 to ptr
  ret ptr %6
}

; Function Attrs: inlinehint nounwind uwtable
define internal ptr @decodeEntryNoValue(ptr noundef %0) #11 {
  %2 = alloca ptr, align 8
  store ptr %0, ptr %2, align 8, !tbaa !36
  %3 = load ptr, ptr %2, align 8, !tbaa !36
  %4 = call ptr @decodeMaskedPtr(ptr noundef %3)
  ret ptr %4
}

; Function Attrs: inlinehint nounwind uwtable
define internal i32 @entryIsNoValue(ptr noundef %0) #11 {
  %2 = alloca ptr, align 8
  store ptr %0, ptr %2, align 8, !tbaa !36
  %3 = load ptr, ptr %2, align 8, !tbaa !36
  %4 = ptrtoint ptr %3 to i64
  %5 = and i64 %4, 7
  %6 = icmp eq i64 %5, 4
  %7 = zext i1 %6 to i32
  ret i32 %7
}

; Function Attrs: inlinehint nounwind uwtable
define internal i32 @entryIsKey(ptr noundef %0) #11 {
  %2 = alloca ptr, align 8
  store ptr %0, ptr %2, align 8, !tbaa !36
  %3 = load ptr, ptr %2, align 8, !tbaa !36
  %4 = ptrtoint ptr %3 to i64
  %5 = and i64 %4, 3
  %6 = trunc i64 %5 to i32
  ret i32 %6
}

; Function Attrs: nounwind uwtable
define internal ptr @dictGetNext(ptr noundef %0) #0 {
  %2 = alloca ptr, align 8
  %3 = alloca ptr, align 8
  store ptr %0, ptr %3, align 8, !tbaa !36
  %4 = load ptr, ptr %3, align 8, !tbaa !36
  %5 = call i32 @entryIsKey(ptr noundef %4)
  %6 = icmp ne i32 %5, 0
  br i1 %6, label %7, label %8

7:                                                ; preds = %1
  store ptr null, ptr %2, align 8
  br label %21

8:                                                ; preds = %1
  %9 = load ptr, ptr %3, align 8, !tbaa !36
  %10 = call i32 @entryIsNoValue(ptr noundef %9)
  %11 = icmp ne i32 %10, 0
  br i1 %11, label %12, label %17

12:                                               ; preds = %8
  %13 = load ptr, ptr %3, align 8, !tbaa !36
  %14 = call ptr @decodeEntryNoValue(ptr noundef %13)
  %15 = getelementptr inbounds nuw %struct.dictEntryNoValue, ptr %14, i32 0, i32 1
  %16 = load ptr, ptr %15, align 8, !tbaa !56
  store ptr %16, ptr %2, align 8
  br label %21

17:                                               ; preds = %8
  %18 = load ptr, ptr %3, align 8, !tbaa !36
  %19 = getelementptr inbounds nuw %struct.dictEntry, ptr %18, i32 0, i32 2
  %20 = load ptr, ptr %19, align 8, !tbaa !53
  store ptr %20, ptr %2, align 8
  br label %21

21:                                               ; preds = %17, %12, %7
  %22 = load ptr, ptr %2, align 8
  ret ptr %22
}

; Function Attrs: nounwind uwtable
define internal void @_dictRehashStep(ptr noundef %0) #0 {
  %2 = alloca ptr, align 8
  store ptr %0, ptr %2, align 8, !tbaa !18
  %3 = load ptr, ptr %2, align 8, !tbaa !18
  %4 = getelementptr inbounds nuw %struct.dict, ptr %3, i32 0, i32 4
  %5 = load i16, ptr %4, align 8
  %6 = and i16 %5, 32767
  %7 = zext i16 %6 to i32
  %8 = icmp eq i32 %7, 0
  br i1 %8, label %9, label %12

9:                                                ; preds = %1
  %10 = load ptr, ptr %2, align 8, !tbaa !18
  %11 = call i32 @dictRehash(ptr noundef %10, i32 noundef 1)
  br label %12

12:                                               ; preds = %9, %1
  ret void
}

; Function Attrs: nounwind uwtable
define dso_local ptr @dictGetRandomKey(ptr noundef %0) #0 {
  %2 = alloca ptr, align 8
  %3 = alloca ptr, align 8
  %4 = alloca ptr, align 8
  %5 = alloca ptr, align 8
  %6 = alloca i64, align 8
  %7 = alloca i32, align 4
  %8 = alloca i32, align 4
  %9 = alloca i32, align 4
  %10 = alloca i64, align 8
  %11 = alloca i64, align 8
  store ptr %0, ptr %3, align 8, !tbaa !18
  call void @llvm.lifetime.start.p0(i64 8, ptr %4) #14
  call void @llvm.lifetime.start.p0(i64 8, ptr %5) #14
  call void @llvm.lifetime.start.p0(i64 8, ptr %6) #14
  call void @llvm.lifetime.start.p0(i64 4, ptr %7) #14
  call void @llvm.lifetime.start.p0(i64 4, ptr %8) #14
  %12 = load ptr, ptr %3, align 8, !tbaa !18
  %13 = getelementptr inbounds nuw %struct.dict, ptr %12, i32 0, i32 2
  %14 = getelementptr inbounds [2 x i64], ptr %13, i64 0, i64 0
  %15 = load i64, ptr %14, align 8, !tbaa !11
  %16 = load ptr, ptr %3, align 8, !tbaa !18
  %17 = getelementptr inbounds nuw %struct.dict, ptr %16, i32 0, i32 2
  %18 = getelementptr inbounds [2 x i64], ptr %17, i64 0, i64 1
  %19 = load i64, ptr %18, align 8, !tbaa !11
  %20 = add i64 %15, %19
  %21 = icmp eq i64 %20, 0
  br i1 %21, label %22, label %23

22:                                               ; preds = %1
  store ptr null, ptr %2, align 8
  store i32 1, ptr %9, align 4
  br label %196

23:                                               ; preds = %1
  %24 = load ptr, ptr %3, align 8, !tbaa !18
  %25 = getelementptr inbounds nuw %struct.dict, ptr %24, i32 0, i32 3
  %26 = load i64, ptr %25, align 8, !tbaa !11
  %27 = icmp ne i64 %26, -1
  br i1 %27, label %28, label %30

28:                                               ; preds = %23
  %29 = load ptr, ptr %3, align 8, !tbaa !18
  call void @_dictRehashStep(ptr noundef %29)
  br label %30

30:                                               ; preds = %28, %23
  %31 = load ptr, ptr %3, align 8, !tbaa !18
  %32 = getelementptr inbounds nuw %struct.dict, ptr %31, i32 0, i32 3
  %33 = load i64, ptr %32, align 8, !tbaa !11
  %34 = icmp ne i64 %33, -1
  br i1 %34, label %35, label %126

35:                                               ; preds = %30
  call void @llvm.lifetime.start.p0(i64 8, ptr %10) #14
  %36 = load ptr, ptr %3, align 8, !tbaa !18
  %37 = getelementptr inbounds nuw %struct.dict, ptr %36, i32 0, i32 5
  %38 = getelementptr inbounds [2 x i8], ptr %37, i64 0, i64 0
  %39 = load i8, ptr %38, align 2, !tbaa !25
  %40 = sext i8 %39 to i32
  %41 = icmp eq i32 %40, -1
  br i1 %41, label %42, label %43

42:                                               ; preds = %35
  br label %51

43:                                               ; preds = %35
  %44 = load ptr, ptr %3, align 8, !tbaa !18
  %45 = getelementptr inbounds nuw %struct.dict, ptr %44, i32 0, i32 5
  %46 = getelementptr inbounds [2 x i8], ptr %45, i64 0, i64 0
  %47 = load i8, ptr %46, align 2, !tbaa !25
  %48 = sext i8 %47 to i32
  %49 = zext i32 %48 to i64
  %50 = shl i64 1, %49
  br label %51

51:                                               ; preds = %43, %42
  %52 = phi i64 [ 0, %42 ], [ %50, %43 ]
  store i64 %52, ptr %10, align 8, !tbaa !11
  br label %53

53:                                               ; preds = %122, %51
  %54 = load ptr, ptr %3, align 8, !tbaa !18
  %55 = getelementptr inbounds nuw %struct.dict, ptr %54, i32 0, i32 3
  %56 = load i64, ptr %55, align 8, !tbaa !11
  %57 = call i64 @genrand64_int64()
  %58 = load ptr, ptr %3, align 8, !tbaa !18
  %59 = getelementptr inbounds nuw %struct.dict, ptr %58, i32 0, i32 5
  %60 = getelementptr inbounds [2 x i8], ptr %59, i64 0, i64 0
  %61 = load i8, ptr %60, align 2, !tbaa !25
  %62 = sext i8 %61 to i32
  %63 = icmp eq i32 %62, -1
  br i1 %63, label %64, label %65

64:                                               ; preds = %53
  br label %73

65:                                               ; preds = %53
  %66 = load ptr, ptr %3, align 8, !tbaa !18
  %67 = getelementptr inbounds nuw %struct.dict, ptr %66, i32 0, i32 5
  %68 = getelementptr inbounds [2 x i8], ptr %67, i64 0, i64 0
  %69 = load i8, ptr %68, align 2, !tbaa !25
  %70 = sext i8 %69 to i32
  %71 = zext i32 %70 to i64
  %72 = shl i64 1, %71
  br label %73

73:                                               ; preds = %65, %64
  %74 = phi i64 [ 0, %64 ], [ %72, %65 ]
  %75 = load ptr, ptr %3, align 8, !tbaa !18
  %76 = getelementptr inbounds nuw %struct.dict, ptr %75, i32 0, i32 5
  %77 = getelementptr inbounds [2 x i8], ptr %76, i64 0, i64 1
  %78 = load i8, ptr %77, align 1, !tbaa !25
  %79 = sext i8 %78 to i32
  %80 = icmp eq i32 %79, -1
  br i1 %80, label %81, label %82

81:                                               ; preds = %73
  br label %90

82:                                               ; preds = %73
  %83 = load ptr, ptr %3, align 8, !tbaa !18
  %84 = getelementptr inbounds nuw %struct.dict, ptr %83, i32 0, i32 5
  %85 = getelementptr inbounds [2 x i8], ptr %84, i64 0, i64 1
  %86 = load i8, ptr %85, align 1, !tbaa !25
  %87 = sext i8 %86 to i32
  %88 = zext i32 %87 to i64
  %89 = shl i64 1, %88
  br label %90

90:                                               ; preds = %82, %81
  %91 = phi i64 [ 0, %81 ], [ %89, %82 ]
  %92 = add i64 %74, %91
  %93 = load ptr, ptr %3, align 8, !tbaa !18
  %94 = getelementptr inbounds nuw %struct.dict, ptr %93, i32 0, i32 3
  %95 = load i64, ptr %94, align 8, !tbaa !11
  %96 = sub i64 %92, %95
  %97 = urem i64 %57, %96
  %98 = add i64 %56, %97
  store i64 %98, ptr %6, align 8, !tbaa !11
  %99 = load i64, ptr %6, align 8, !tbaa !11
  %100 = load i64, ptr %10, align 8, !tbaa !11
  %101 = icmp uge i64 %99, %100
  br i1 %101, label %102, label %112

102:                                              ; preds = %90
  %103 = load ptr, ptr %3, align 8, !tbaa !18
  %104 = getelementptr inbounds nuw %struct.dict, ptr %103, i32 0, i32 1
  %105 = getelementptr inbounds [2 x ptr], ptr %104, i64 0, i64 1
  %106 = load ptr, ptr %105, align 8, !tbaa !30
  %107 = load i64, ptr %6, align 8, !tbaa !11
  %108 = load i64, ptr %10, align 8, !tbaa !11
  %109 = sub i64 %107, %108
  %110 = getelementptr inbounds nuw ptr, ptr %106, i64 %109
  %111 = load ptr, ptr %110, align 8, !tbaa !36
  br label %120

112:                                              ; preds = %90
  %113 = load ptr, ptr %3, align 8, !tbaa !18
  %114 = getelementptr inbounds nuw %struct.dict, ptr %113, i32 0, i32 1
  %115 = getelementptr inbounds [2 x ptr], ptr %114, i64 0, i64 0
  %116 = load ptr, ptr %115, align 8, !tbaa !30
  %117 = load i64, ptr %6, align 8, !tbaa !11
  %118 = getelementptr inbounds nuw ptr, ptr %116, i64 %117
  %119 = load ptr, ptr %118, align 8, !tbaa !36
  br label %120

120:                                              ; preds = %112, %102
  %121 = phi ptr [ %111, %102 ], [ %119, %112 ]
  store ptr %121, ptr %4, align 8, !tbaa !36
  br label %122

122:                                              ; preds = %120
  %123 = load ptr, ptr %4, align 8, !tbaa !36
  %124 = icmp eq ptr %123, null
  br i1 %124, label %53, label %125, !llvm.loop !88

125:                                              ; preds = %122
  call void @llvm.lifetime.end.p0(i64 8, ptr %10) #14
  br label %170

126:                                              ; preds = %30
  call void @llvm.lifetime.start.p0(i64 8, ptr %11) #14
  %127 = load ptr, ptr %3, align 8, !tbaa !18
  %128 = getelementptr inbounds nuw %struct.dict, ptr %127, i32 0, i32 5
  %129 = getelementptr inbounds [2 x i8], ptr %128, i64 0, i64 0
  %130 = load i8, ptr %129, align 2, !tbaa !25
  %131 = sext i8 %130 to i32
  %132 = icmp eq i32 %131, -1
  br i1 %132, label %133, label %134

133:                                              ; preds = %126
  br label %153

134:                                              ; preds = %126
  %135 = load ptr, ptr %3, align 8, !tbaa !18
  %136 = getelementptr inbounds nuw %struct.dict, ptr %135, i32 0, i32 5
  %137 = getelementptr inbounds [2 x i8], ptr %136, i64 0, i64 0
  %138 = load i8, ptr %137, align 2, !tbaa !25
  %139 = sext i8 %138 to i32
  %140 = icmp eq i32 %139, -1
  br i1 %140, label %141, label %142

141:                                              ; preds = %134
  br label %150

142:                                              ; preds = %134
  %143 = load ptr, ptr %3, align 8, !tbaa !18
  %144 = getelementptr inbounds nuw %struct.dict, ptr %143, i32 0, i32 5
  %145 = getelementptr inbounds [2 x i8], ptr %144, i64 0, i64 0
  %146 = load i8, ptr %145, align 2, !tbaa !25
  %147 = sext i8 %146 to i32
  %148 = zext i32 %147 to i64
  %149 = shl i64 1, %148
  br label %150

150:                                              ; preds = %142, %141
  %151 = phi i64 [ 0, %141 ], [ %149, %142 ]
  %152 = sub i64 %151, 1
  br label %153

153:                                              ; preds = %150, %133
  %154 = phi i64 [ 0, %133 ], [ %152, %150 ]
  store i64 %154, ptr %11, align 8, !tbaa !11
  br label %155

155:                                              ; preds = %166, %153
  %156 = call i64 @genrand64_int64()
  %157 = load i64, ptr %11, align 8, !tbaa !11
  %158 = and i64 %156, %157
  store i64 %158, ptr %6, align 8, !tbaa !11
  %159 = load ptr, ptr %3, align 8, !tbaa !18
  %160 = getelementptr inbounds nuw %struct.dict, ptr %159, i32 0, i32 1
  %161 = getelementptr inbounds [2 x ptr], ptr %160, i64 0, i64 0
  %162 = load ptr, ptr %161, align 8, !tbaa !30
  %163 = load i64, ptr %6, align 8, !tbaa !11
  %164 = getelementptr inbounds nuw ptr, ptr %162, i64 %163
  %165 = load ptr, ptr %164, align 8, !tbaa !36
  store ptr %165, ptr %4, align 8, !tbaa !36
  br label %166

166:                                              ; preds = %155
  %167 = load ptr, ptr %4, align 8, !tbaa !36
  %168 = icmp eq ptr %167, null
  br i1 %168, label %155, label %169, !llvm.loop !89

169:                                              ; preds = %166
  call void @llvm.lifetime.end.p0(i64 8, ptr %11) #14
  br label %170

170:                                              ; preds = %169, %125
  store i32 0, ptr %7, align 4, !tbaa !29
  %171 = load ptr, ptr %4, align 8, !tbaa !36
  store ptr %171, ptr %5, align 8, !tbaa !36
  br label %172

172:                                              ; preds = %175, %170
  %173 = load ptr, ptr %4, align 8, !tbaa !36
  %174 = icmp ne ptr %173, null
  br i1 %174, label %175, label %180

175:                                              ; preds = %172
  %176 = load ptr, ptr %4, align 8, !tbaa !36
  %177 = call ptr @dictGetNext(ptr noundef %176)
  store ptr %177, ptr %4, align 8, !tbaa !36
  %178 = load i32, ptr %7, align 4, !tbaa !29
  %179 = add nsw i32 %178, 1
  store i32 %179, ptr %7, align 4, !tbaa !29
  br label %172, !llvm.loop !90

180:                                              ; preds = %172
  %181 = call i64 @random() #14
  %182 = load i32, ptr %7, align 4, !tbaa !29
  %183 = sext i32 %182 to i64
  %184 = srem i64 %181, %183
  %185 = trunc i64 %184 to i32
  store i32 %185, ptr %8, align 4, !tbaa !29
  %186 = load ptr, ptr %5, align 8, !tbaa !36
  store ptr %186, ptr %4, align 8, !tbaa !36
  br label %187

187:                                              ; preds = %191, %180
  %188 = load i32, ptr %8, align 4, !tbaa !29
  %189 = add nsw i32 %188, -1
  store i32 %189, ptr %8, align 4, !tbaa !29
  %190 = icmp ne i32 %188, 0
  br i1 %190, label %191, label %194

191:                                              ; preds = %187
  %192 = load ptr, ptr %4, align 8, !tbaa !36
  %193 = call ptr @dictGetNext(ptr noundef %192)
  store ptr %193, ptr %4, align 8, !tbaa !36
  br label %187, !llvm.loop !91

194:                                              ; preds = %187
  %195 = load ptr, ptr %4, align 8, !tbaa !36
  store ptr %195, ptr %2, align 8
  store i32 1, ptr %9, align 4
  br label %196

196:                                              ; preds = %194, %22
  call void @llvm.lifetime.end.p0(i64 4, ptr %8) #14
  call void @llvm.lifetime.end.p0(i64 4, ptr %7) #14
  call void @llvm.lifetime.end.p0(i64 8, ptr %6) #14
  call void @llvm.lifetime.end.p0(i64 8, ptr %5) #14
  call void @llvm.lifetime.end.p0(i64 8, ptr %4) #14
  %197 = load ptr, ptr %2, align 8
  ret ptr %197
}