; Function Attrs: nounwind uwtable
define dso_local ptr @dictGetRandomKey(ptr noundef %0) local_unnamed_addr #3 {
  %2 = getelementptr inbounds nuw i8, ptr %0, i64 24
  %3 = load i64, ptr %2, align 8, !tbaa !14
  %4 = getelementptr inbounds nuw i8, ptr %0, i64 32
  %5 = load i64, ptr %4, align 8, !tbaa !14
  %6 = sub i64 0, %5
  %7 = icmp eq i64 %3, %6
  br i1 %7, label %.loopexit, label %8

8:                                                ; preds = %1
  %9 = getelementptr inbounds nuw i8, ptr %0, i64 40
  %10 = load i64, ptr %9, align 8, !tbaa !14
  %.not = icmp eq i64 %10, -1
  br i1 %.not, label %_dictRehashStep.exit.thread, label %11

11:                                               ; preds = %8
  %12 = getelementptr inbounds nuw i8, ptr %0, i64 48
  %13 = load i16, ptr %12, align 8
  %14 = and i16 %13, 32767
  %15 = icmp eq i16 %14, 0
  br i1 %15, label %_dictRehashStep.exit, label %_dictRehashStep.exit.thread70

_dictRehashStep.exit:                             ; preds = %11
  %16 = tail call i32 @dictRehash(ptr noundef nonnull %0, i32 noundef 1)
  %.pr.pre = load i64, ptr %9, align 8, !tbaa !14
  %.not49 = icmp eq i64 %.pr.pre, -1
  br i1 %.not49, label %_dictRehashStep.exit.thread, label %_dictRehashStep.exit.thread70

_dictRehashStep.exit.thread70:                    ; preds = %11, %_dictRehashStep.exit
  %.pr73 = phi i64 [ %.pr.pre, %_dictRehashStep.exit ], [ %10, %11 ]
  %17 = getelementptr inbounds nuw i8, ptr %0, i64 50
  %18 = load i8, ptr %17, align 2, !tbaa !13
  %19 = icmp eq i8 %18, -1
  %20 = sext i8 %18 to i64
  %21 = and i64 %20, 4294967295
  %22 = shl nuw i64 1, %21
  %23 = select i1 %19, i64 0, i64 %22
  %24 = getelementptr inbounds nuw i8, ptr %0, i64 51
  %25 = getelementptr inbounds nuw i8, ptr %0, i64 16
  %26 = getelementptr inbounds nuw i8, ptr %0, i64 8
  br label %27

27:                                               ; preds = %54, %_dictRehashStep.exit.thread70
  %28 = phi i64 [ %42, %54 ], [ %.pr73, %_dictRehashStep.exit.thread70 ]
  %29 = tail call i64 @genrand64_int64() #25
  %30 = load i8, ptr %17, align 2, !tbaa !13
  %31 = icmp eq i8 %30, -1
  %32 = sext i8 %30 to i64
  %33 = and i64 %32, 4294967295
  %34 = shl nuw i64 1, %33
  %35 = select i1 %31, i64 0, i64 %34
  %36 = load i8, ptr %24, align 1, !tbaa !13
  %37 = icmp eq i8 %36, -1
  %38 = sext i8 %36 to i64
  %39 = and i64 %38, 4294967295
  %40 = shl nuw i64 1, %39
  %41 = select i1 %37, i64 0, i64 %40
  %42 = load i64, ptr %9, align 8, !tbaa !14
  %43 = sub i64 %35, %42
  %44 = add i64 %43, %41
  %45 = urem i64 %29, %44
  %46 = add i64 %45, %28
  %.not50 = icmp ult i64 %46, %23
  br i1 %.not50, label %51, label %47

47:                                               ; preds = %27
  %48 = load ptr, ptr %25, align 8, !tbaa !11
  %49 = sub nuw i64 %46, %23
  %50 = getelementptr inbounds nuw ptr, ptr %48, i64 %49
  br label %54

51:                                               ; preds = %27
  %52 = load ptr, ptr %26, align 8, !tbaa !11
  %53 = getelementptr inbounds nuw ptr, ptr %52, i64 %46
  br label %54

54:                                               ; preds = %51, %47
  %.in = phi ptr [ %50, %47 ], [ %53, %51 ]
  %55 = load ptr, ptr %.in, align 8, !tbaa !31
  %56 = icmp eq ptr %55, null
  br i1 %56, label %27, label %.loopexit58, !llvm.loop !76

_dictRehashStep.exit.thread:                      ; preds = %8, %_dictRehashStep.exit
  %57 = getelementptr inbounds nuw i8, ptr %0, i64 50
  %58 = load i8, ptr %57, align 2, !tbaa !13
  %59 = sext i8 %58 to i64
  %60 = icmp eq i8 %58, -1
  %61 = and i64 %59, 4294967295
  %notmask = shl nsw i64 -1, %61
  %62 = xor i64 %notmask, -1
  %63 = select i1 %60, i64 0, i64 %62
  %64 = getelementptr inbounds nuw i8, ptr %0, i64 8
  br label %65

65:                                               ; preds = %65, %_dictRehashStep.exit.thread
  %66 = tail call i64 @genrand64_int64() #25
  %67 = and i64 %66, %63
  %68 = load ptr, ptr %64, align 8, !tbaa !11
  %69 = getelementptr inbounds nuw ptr, ptr %68, i64 %67
  %70 = load ptr, ptr %69, align 8, !tbaa !31
  %71 = icmp eq ptr %70, null
  br i1 %71, label %65, label %.loopexit58, !llvm.loop !77

.loopexit58:                                      ; preds = %54, %65
  %.037 = phi ptr [ %70, %65 ], [ %55, %54 ]
  br label %72

72:                                               ; preds = %.loopexit58, %dictGetNext.exit
  %.162 = phi ptr [ %.037, %.loopexit58 ], [ %.0.i, %dictGetNext.exit ]
  %.03961 = phi i32 [ 0, %.loopexit58 ], [ %81, %dictGetNext.exit ]
  %73 = ptrtoint ptr %.162 to i64
  %74 = and i64 %73, 3
  %.not.i = icmp eq i64 %74, 0
  br i1 %.not.i, label %dictGetNext.exit, label %dictGetNext.exit.thread

dictGetNext.exit.thread:                          ; preds = %72
  %75 = add nuw nsw i32 %.03961, 1
  br label %.loopexit76

dictGetNext.exit:                                 ; preds = %72
  %76 = and i64 %73, 4
  %.not5.i = icmp eq i64 %76, 0
  %77 = and i64 %73, -8
  %78 = inttoptr i64 %77 to ptr
  %79 = getelementptr inbounds nuw i8, ptr %78, i64 8
  %80 = getelementptr inbounds nuw i8, ptr %.162, i64 16
  %.0.i.in = select i1 %.not5.i, ptr %80, ptr %79
  %.0.i = load ptr, ptr %.0.i.in, align 8, !tbaa !31
  %81 = add nuw nsw i32 %.03961, 1
  %.not51 = icmp eq ptr %.0.i, null
  br i1 %.not51, label %.loopexit76, label %72, !llvm.loop !78

.loopexit76:                                      ; preds = %dictGetNext.exit, %dictGetNext.exit.thread
  %82 = phi i32 [ %75, %dictGetNext.exit.thread ], [ %81, %dictGetNext.exit ]
  %83 = tail call i64 @random() #25
  %84 = zext nneg i32 %82 to i64
  %85 = srem i64 %83, %84
  %.not5263 = icmp eq i64 %85, 0
  br i1 %.not5263, label %.loopexit, label %.lr.ph.preheader

.lr.ph.preheader:                                 ; preds = %.loopexit76
  %86 = trunc nsw i64 %85 to i32
  br label %.lr.ph

.lr.ph:                                           ; preds = %.lr.ph.preheader, %dictGetNext.exit56
  %.265 = phi ptr [ %.0.i54, %dictGetNext.exit56 ], [ %.037, %.lr.ph.preheader ]
  %.03864 = phi i32 [ %87, %dictGetNext.exit56 ], [ %86, %.lr.ph.preheader ]
  %87 = add nsw i32 %.03864, -1
  %88 = ptrtoint ptr %.265 to i64
  %89 = and i64 %88, 3
  %.not.i53 = icmp eq i64 %89, 0
  br i1 %.not.i53, label %90, label %dictGetNext.exit56

90:                                               ; preds = %.lr.ph
  %91 = and i64 %88, 4
  %.not5.i55 = icmp eq i64 %91, 0
  br i1 %.not5.i55, label %97, label %92

92:                                               ; preds = %90
  %93 = and i64 %88, -8
  %94 = inttoptr i64 %93 to ptr
  %95 = getelementptr inbounds nuw i8, ptr %94, i64 8
  %96 = load ptr, ptr %95, align 8, !tbaa !35
  br label %dictGetNext.exit56

97:                                               ; preds = %90
  %98 = getelementptr inbounds nuw i8, ptr %.265, i64 16
  %99 = load ptr, ptr %98, align 8, !tbaa !37
  br label %dictGetNext.exit56

dictGetNext.exit56:                               ; preds = %.lr.ph, %92, %97
  %.0.i54 = phi ptr [ %96, %92 ], [ %99, %97 ], [ null, %.lr.ph ]
  %.not52 = icmp eq i32 %87, 0
  br i1 %.not52, label %.loopexit, label %.lr.ph, !llvm.loop !79

.loopexit:                                        ; preds = %dictGetNext.exit56, %.loopexit76, %1
  %.0 = phi ptr [ null, %1 ], [ %.037, %.loopexit76 ], [ %.0.i54, %dictGetNext.exit56 ]
  ret ptr %.0
}